; Function Attrs: mustprogress uwtable
define dso_local void @_ZN4Luau17DifferEnvironment11popVisitingEv(ptr noundef nonnull align 8 dereferenceable(312) %0) local_unnamed_addr #1 align 2 {
  %2 = alloca %"struct.std::pair", align 8
  %3 = alloca %"struct.std::pair", align 8
  %4 = getelementptr inbounds i8, ptr %0, i64 296
  %5 = load ptr, ptr %4, align 8
  %6 = getelementptr inbounds i8, ptr %5, i64 -16
  %.sroa.0.0.copyload = load ptr, ptr %6, align 8
  %.sroa.3.0..sroa_idx = getelementptr inbounds i8, ptr %5, i64 -8
  %.sroa.3.0.copyload = load ptr, ptr %.sroa.3.0..sroa_idx, align 8
  %7 = getelementptr inbounds i8, ptr %0, i64 232
  store ptr %.sroa.0.0.copyload, ptr %2, align 8
  %8 = getelementptr inbounds i8, ptr %2, i64 8
  store ptr %.sroa.3.0.copyload, ptr %8, align 8
  %9 = call noundef i64 @_ZNSt10_HashtableISt4pairIPKN4Luau4TypeES4_ES5_SaIS5_ENSt8__detail9_IdentityESt8equal_toIS5_ENS1_14TypeIdPairHashENS7_18_Mod_range_hashingENS7_20_Default_ranged_hashENS7_20_Prime_rehash_policyENS7_17_Hashtable_traitsILb1ELb1ELb1EEEE8_M_eraseESt17integral_constantIbLb1EERKS5_(ptr noundef nonnull align 8 dereferenceable(56) %7, ptr noundef nonnull align 8 dereferenceable(16) %2)
  store ptr %.sroa.3.0.copyload, ptr %3, align 8
  %10 = getelementptr inbounds i8, ptr %3, i64 8
  store ptr %.sroa.0.0.copyload, ptr %10, align 8
  %11 = call noundef i64 @_ZNSt10_HashtableISt4pairIPKN4Luau4TypeES4_ES5_SaIS5_ENSt8__detail9_IdentityESt8equal_toIS5_ENS1_14TypeIdPairHashENS7_18_Mod_range_hashingENS7_20_Default_ranged_hashENS7_20_Prime_rehash_policyENS7_17_Hashtable_traitsILb1ELb1ELb1EEEE8_M_eraseESt17integral_constantIbLb1EERKS5_(ptr noundef nonnull align 8 dereferenceable(56) %7, ptr noundef nonnull align 8 dereferenceable(16) %3)
  %12 = load ptr, ptr %4, align 8
  %13 = getelementptr inbounds i8, ptr %12, i64 -16
  store ptr %13, ptr %4, align 8
  ret void
}